target datalayout = "e-m:e-p270:32:32-p271:32:32-p272:64:64-i64:64-i128:128-f80:128-n8:16:32:64-S128"
target triple = "x86_64-pc-linux-gnu"

%"struct.rocksdb::WriteBatchIndexEntry" = type { i64, i32, i32, i8, i8, i64, i64, ptr }
%"class.rocksdb::WBWIIteratorImpl" = type <{ %"class.rocksdb::WBWIIterator", i32, [4 x i8], %"class.rocksdb::SkipList<rocksdb::WriteBatchIndexEntry *, const rocksdb::WriteBatchEntryComparator &>::Iterator", ptr, ptr, ptr, ptr, i8, [7 x i8] }>
%"class.rocksdb::WBWIIterator" = type { ptr }
%"class.rocksdb::SkipList<rocksdb::WriteBatchIndexEntry *, const rocksdb::WriteBatchEntryComparator &>::Iterator" = type { ptr, ptr }
%"struct.rocksdb::SkipList<rocksdb::WriteBatchIndexEntry *, const rocksdb::WriteBatchEntryComparator &>::Node" = type { ptr, [1 x %"struct.std::atomic.151"] }
%"struct.std::atomic.151" = type { %"struct.std::__atomic_base.152" }
%"struct.std::__atomic_base.152" = type { ptr }

; Function Attrs: mustprogress nounwind uwtable
define linkonce_odr noundef i32 @_ZStanSt12memory_orderSt23__memory_order_modifier(i32 noundef %0, i32 noundef %1) #3 comdat {
  %3 = alloca i32, align 4
  %4 = alloca i32, align 4
  store i32 %0, ptr %3, align 4, !tbaa !444
  store i32 %1, ptr %4, align 4, !tbaa !446
  %5 = load i32, ptr %3, align 4, !tbaa !444
  %6 = load i32, ptr %4, align 4, !tbaa !446
  %7 = and i32 %5, %6
  ret i32 %7
}

; Function Attrs: alwaysinline mustprogress nounwind uwtable
define linkonce_odr noundef ptr @_ZNKSt13__atomic_baseIPN7rocksdb8SkipListIPNS0_20WriteBatchIndexEntryERKNS0_25WriteBatchEntryComparatorEE4NodeEE4loadESt12memory_order(ptr noundef nonnull align 8 dereferenceable(8) %0, i32 noundef %1) #14 comdat align 2 {
  %3 = alloca ptr, align 8
  %4 = alloca i32, align 4
  %5 = alloca i32, align 4
  %6 = alloca ptr, align 8
  store ptr %0, ptr %3, align 8, !tbaa !450
  store i32 %1, ptr %4, align 4, !tbaa !444
  %7 = load ptr, ptr %3, align 8
  call void @llvm.lifetime.start.p0(i64 4, ptr %5) #4
  %8 = load i32, ptr %4, align 4, !tbaa !444
  %9 = call noundef i32 @_ZStanSt12memory_orderSt23__memory_order_modifier(i32 noundef %8, i32 noundef 65535)
  store i32 %9, ptr %5, align 4, !tbaa !444
  br label %10

10:                                               ; preds = %2
  br label %11

11:                                               ; preds = %10
  br label %12

12:                                               ; preds = %11
  br label %13

13:                                               ; preds = %12
  br label %14

14:                                               ; preds = %13
  br label %15

15:                                               ; preds = %14
  %16 = getelementptr inbounds nuw %"struct.std::__atomic_base.152", ptr %7, i32 0, i32 0
  %17 = load i32, ptr %4, align 4, !tbaa !444
  switch i32 %17, label %18 [
    i32 1, label %20
    i32 2, label %20
    i32 5, label %22
  ]

18:                                               ; preds = %15
  %19 = load atomic i64, ptr %16 monotonic, align 8
  store i64 %19, ptr %6, align 8
  br label %24

20:                                               ; preds = %15, %15
  %21 = load atomic i64, ptr %16 acquire, align 8
  store i64 %21, ptr %6, align 8
  br label %24

22:                                               ; preds = %15
  %23 = load atomic i64, ptr %16 seq_cst, align 8
  store i64 %23, ptr %6, align 8
  br label %24

24:                                               ; preds = %22, %20, %18
  %25 = load ptr, ptr %6, align 8, !tbaa !437
  call void @llvm.lifetime.end.p0(i64 4, ptr %5) #4
  ret ptr %25
}

; Function Attrs: mustprogress nounwind uwtable
define linkonce_odr noundef ptr @_ZNKSt6atomicIPN7rocksdb8SkipListIPNS0_20WriteBatchIndexEntryERKNS0_25WriteBatchEntryComparatorEE4NodeEE4loadESt12memory_order(ptr noundef nonnull align 8 dereferenceable(8) %0, i32 noundef %1) #3 comdat align 2 {
  %3 = alloca ptr, align 8
  %4 = alloca i32, align 4
  store ptr %0, ptr %3, align 8, !tbaa !448
  store i32 %1, ptr %4, align 4, !tbaa !444
  %5 = load ptr, ptr %3, align 8
  %6 = getelementptr inbounds nuw %"struct.std::atomic.151", ptr %5, i32 0, i32 0
  %7 = load i32, ptr %4, align 4, !tbaa !444
  %8 = call noundef ptr @_ZNKSt13__atomic_baseIPN7rocksdb8SkipListIPNS0_20WriteBatchIndexEntryERKNS0_25WriteBatchEntryComparatorEE4NodeEE4loadESt12memory_order(ptr noundef nonnull align 8 dereferenceable(8) %6, i32 noundef %7) #4
  ret ptr %8
}

; Function Attrs: mustprogress nounwind uwtable
define linkonce_odr noundef ptr @_ZN7rocksdb8SkipListIPNS_20WriteBatchIndexEntryERKNS_25WriteBatchEntryComparatorEE4Node4NextEi(ptr noundef nonnull align 8 dereferenceable(16) %0, i32 noundef %1) #3 comdat align 2 {
  %3 = alloca ptr, align 8
  %4 = alloca i32, align 4
  store ptr %0, ptr %3, align 8, !tbaa !437
  store i32 %1, ptr %4, align 4, !tbaa !174
  %5 = load ptr, ptr %3, align 8
  %6 = getelementptr inbounds nuw %"struct.rocksdb::SkipList<rocksdb::WriteBatchIndexEntry *, const rocksdb::WriteBatchEntryComparator &>::Node", ptr %5, i32 0, i32 1
  %7 = load i32, ptr %4, align 4, !tbaa !174
  %8 = sext i32 %7 to i64
  %9 = getelementptr inbounds [1 x %"struct.std::atomic.151"], ptr %6, i64 0, i64 %8
  %10 = call noundef ptr @_ZNKSt6atomicIPN7rocksdb8SkipListIPNS0_20WriteBatchIndexEntryERKNS0_25WriteBatchEntryComparatorEE4NodeEE4loadESt12memory_order(ptr noundef nonnull align 8 dereferenceable(8) %9, i32 noundef 2) #4
  ret ptr %10
}

; Function Attrs: inlinehint mustprogress nounwind uwtable
define linkonce_odr noundef nonnull align 8 dereferenceable(8) ptr @_ZNK7rocksdb8SkipListIPNS_20WriteBatchIndexEntryERKNS_25WriteBatchEntryComparatorEE8Iterator3keyEv(ptr noundef nonnull align 8 dereferenceable(16) %0) #1 comdat align 2 {
  %2 = alloca ptr, align 8
  store ptr %0, ptr %2, align 8, !tbaa !283
  %3 = load ptr, ptr %2, align 8
  %4 = getelementptr inbounds nuw %"class.rocksdb::SkipList<rocksdb::WriteBatchIndexEntry *, const rocksdb::WriteBatchEntryComparator &>::Iterator", ptr %3, i32 0, i32 1
  %5 = load ptr, ptr %4, align 8, !tbaa !285
  %6 = getelementptr inbounds nuw %"struct.rocksdb::SkipList<rocksdb::WriteBatchIndexEntry *, const rocksdb::WriteBatchEntryComparator &>::Node", ptr %5, i32 0, i32 0
  ret ptr %6
}

; Function Attrs: inlinehint mustprogress nounwind uwtable
define linkonce_odr noundef zeroext i1 @_ZNK7rocksdb8SkipListIPNS_20WriteBatchIndexEntryERKNS_25WriteBatchEntryComparatorEE8Iterator5ValidEv(ptr noundef nonnull align 8 dereferenceable(16) %0) #1 comdat align 2 {
  %2 = alloca ptr, align 8
  store ptr %0, ptr %2, align 8, !tbaa !283
  %3 = load ptr, ptr %2, align 8
  %4 = getelementptr inbounds nuw %"class.rocksdb::SkipList<rocksdb::WriteBatchIndexEntry *, const rocksdb::WriteBatchEntryComparator &>::Iterator", ptr %3, i32 0, i32 1
  %5 = load ptr, ptr %4, align 8, !tbaa !285
  %6 = icmp ne ptr %5, null
  ret i1 %6
}

; Function Attrs: inlinehint mustprogress nounwind uwtable
define linkonce_odr void @_ZN7rocksdb8SkipListIPNS_20WriteBatchIndexEntryERKNS_25WriteBatchEntryComparatorEE8Iterator4NextEv(ptr noundef nonnull align 8 dereferenceable(16) %0) #1 comdat align 2 {
  %2 = alloca ptr, align 8
  store ptr %0, ptr %2, align 8, !tbaa !283
  %3 = load ptr, ptr %2, align 8
  %4 = getelementptr inbounds nuw %"class.rocksdb::SkipList<rocksdb::WriteBatchIndexEntry *, const rocksdb::WriteBatchEntryComparator &>::Iterator", ptr %3, i32 0, i32 1
  %5 = load ptr, ptr %4, align 8, !tbaa !285
  %6 = call noundef ptr @_ZN7rocksdb8SkipListIPNS_20WriteBatchIndexEntryERKNS_25WriteBatchEntryComparatorEE4Node4NextEi(ptr noundef nonnull align 8 dereferenceable(16) %5, i32 noundef 0)
  %7 = getelementptr inbounds nuw %"class.rocksdb::SkipList<rocksdb::WriteBatchIndexEntry *, const rocksdb::WriteBatchEntryComparator &>::Iterator", ptr %3, i32 0, i32 1
  store ptr %6, ptr %7, align 8, !tbaa !285
  ret void
}

; Function Attrs: mustprogress uwtable
define linkonce_odr noundef zeroext i1 @_ZNK7rocksdb16WBWIIteratorImpl27ValidRegardlessOfBoundLimitEv(ptr noundef nonnull align 8 dereferenceable(72) %0) #5 comdat align 2 {
  %2 = alloca i1, align 1
  %3 = alloca ptr, align 8
  %4 = alloca ptr, align 8
  store ptr %0, ptr %3, align 8, !tbaa !58
  %5 = load ptr, ptr %3, align 8
  %6 = getelementptr inbounds nuw %"class.rocksdb::WBWIIteratorImpl", ptr %5, i32 0, i32 3
  %7 = call noundef zeroext i1 @_ZNK7rocksdb8SkipListIPNS_20WriteBatchIndexEntryERKNS_25WriteBatchEntryComparatorEE8Iterator5ValidEv(ptr noundef nonnull align 8 dereferenceable(16) %6)
  br i1 %7, label %9, label %8

8:                                                ; preds = %1
  store i1 false, ptr %2, align 1
  br label %24

9:                                                ; preds = %1
  call void @llvm.lifetime.start.p0(i64 8, ptr %4) #4
  %10 = getelementptr inbounds nuw %"class.rocksdb::WBWIIteratorImpl", ptr %5, i32 0, i32 3
  %11 = call noundef nonnull align 8 dereferenceable(8) ptr @_ZNK7rocksdb8SkipListIPNS_20WriteBatchIndexEntryERKNS_25WriteBatchEntryComparatorEE8Iterator3keyEv(ptr noundef nonnull align 8 dereferenceable(16) %10)
  %12 = load ptr, ptr %11, align 8, !tbaa !166
  store ptr %12, ptr %4, align 8, !tbaa !166
  %13 = load ptr, ptr %4, align 8, !tbaa !166
  %14 = icmp ne ptr %13, null
  br i1 %14, label %15, label %22

15:                                               ; preds = %9
  %16 = load ptr, ptr %4, align 8, !tbaa !166
  %17 = getelementptr inbounds nuw %"struct.rocksdb::WriteBatchIndexEntry", ptr %16, i32 0, i32 1
  %18 = load i32, ptr %17, align 8, !tbaa !274
  %19 = getelementptr inbounds nuw %"class.rocksdb::WBWIIteratorImpl", ptr %5, i32 0, i32 1
  %20 = load i32, ptr %19, align 8, !tbaa !165
  %21 = icmp eq i32 %18, %20
  br label %22

22:                                               ; preds = %15, %9
  %23 = phi i1 [ false, %9 ], [ %21, %15 ]
  store i1 %23, ptr %2, align 1
  call void @llvm.lifetime.end.p0(i64 8, ptr %4) #4
  br label %24

24:                                               ; preds = %22, %8
  %25 = load i1, ptr %2, align 1
  ret i1 %25
}

; Function Attrs: mustprogress uwtable
define linkonce_odr void @_ZN7rocksdb16WBWIIteratorImpl4NextEv(ptr noundef nonnull align 8 dereferenceable(72) %0) unnamed_addr #5 comdat align 2 {
  %2 = alloca ptr, align 8
  store ptr %0, ptr %2, align 8, !tbaa !58
  %3 = load ptr, ptr %2, align 8
  %4 = getelementptr inbounds nuw %"class.rocksdb::WBWIIteratorImpl", ptr %3, i32 0, i32 3
  call void @_ZN7rocksdb8SkipListIPNS_20WriteBatchIndexEntryERKNS_25WriteBatchEntryComparatorEE8Iterator4NextEv(ptr noundef nonnull align 8 dereferenceable(16) %4)
  %5 = call noundef zeroext i1 @_ZNK7rocksdb16WBWIIteratorImpl27ValidRegardlessOfBoundLimitEv(ptr noundef nonnull align 8 dereferenceable(72) %3)
  br i1 %5, label %6, label %10

6:                                                ; preds = %1
  %7 = call noundef zeroext i1 @_ZNK7rocksdb16WBWIIteratorImpl14TestOutOfBoundEv(ptr noundef nonnull align 8 dereferenceable(72) %3)
  %8 = getelementptr inbounds nuw %"class.rocksdb::WBWIIteratorImpl", ptr %3, i32 0, i32 8
  %9 = zext i1 %7 to i8
  store i8 %9, ptr %8, align 8, !tbaa !168
  br label %10

10:                                               ; preds = %6, %1
  ret void
}

; Function Attrs: mustprogress uwtable
define linkonce_odr noundef zeroext i1 @_ZNK7rocksdb16WBWIIteratorImpl5ValidEv(ptr noundef nonnull align 8 dereferenceable(72) %0) unnamed_addr #5 comdat align 2 {
  %2 = alloca ptr, align 8
  store ptr %0, ptr %2, align 8, !tbaa !58
  %3 = load ptr, ptr %2, align 8
  %4 = getelementptr inbounds nuw %"class.rocksdb::WBWIIteratorImpl", ptr %3, i32 0, i32 8
  %5 = load i8, ptr %4, align 8, !tbaa !168, !range !131, !noundef !132
  %6 = trunc i8 %5 to i1
  br i1 %6, label %9, label %7

7:                                                ; preds = %1
  %8 = call noundef zeroext i1 @_ZNK7rocksdb16WBWIIteratorImpl27ValidRegardlessOfBoundLimitEv(ptr noundef nonnull align 8 dereferenceable(72) %3)
  br label %9

9:                                                ; preds = %7, %1
  %10 = phi i1 [ false, %1 ], [ %8, %7 ]
  ret i1 %10
}

; Function Attrs: mustprogress uwtable
define void @_ZN7rocksdb16WBWIIteratorImpl7PrevKeyEv(ptr noundef nonnull align 8 dereferenceable(72) %0) #5 align 2 {
  %2 = alloca ptr, align 8
  store ptr %0, ptr %2, align 8, !tbaa !58
  %3 = load ptr, ptr %2, align 8
  call void @_ZN7rocksdb16WBWIIteratorImpl10AdvanceKeyEb(ptr noundef nonnull align 8 dereferenceable(72) %3, i1 noundef zeroext false)
  %4 = call noundef zeroext i1 @_ZNK7rocksdb16WBWIIteratorImpl5ValidEv(ptr noundef nonnull align 8 dereferenceable(72) %3)
  br i1 %4, label %5, label %10

5:                                                ; preds = %1
  call void @_ZN7rocksdb16WBWIIteratorImpl10AdvanceKeyEb(ptr noundef nonnull align 8 dereferenceable(72) %3, i1 noundef zeroext false)
  %6 = call noundef zeroext i1 @_ZNK7rocksdb16WBWIIteratorImpl5ValidEv(ptr noundef nonnull align 8 dereferenceable(72) %3)
  br i1 %6, label %7, label %8

7:                                                ; preds = %5
  call void @_ZN7rocksdb16WBWIIteratorImpl4NextEv(ptr noundef nonnull align 8 dereferenceable(72) %3)
  br label %9

8:                                                ; preds = %5
  call void @_ZN7rocksdb16WBWIIteratorImpl11SeekToFirstEv(ptr noundef nonnull align 8 dereferenceable(72) %3)
  br label %9

9:                                                ; preds = %8, %7
  br label %10

10:                                               ; preds = %9, %1
  ret void
}