; Function Attrs: mustprogress uwtable
define void @_ZN7rocksdb16WBWIIteratorImpl7PrevKeyEv(ptr noundef nonnull align 8 dereferenceable(72) %0) local_unnamed_addr #4 align 2 {
  tail call void @_ZN7rocksdb16WBWIIteratorImpl10AdvanceKeyEb(ptr noundef nonnull align 8 dereferenceable(72) %0, i1 noundef zeroext false)
  %2 = getelementptr inbounds nuw i8, ptr %0, i64 64
  %3 = load i8, ptr %2, align 8, !tbaa !120, !range !91, !noundef !92
  %4 = trunc nuw i8 %3 to i1
  br i1 %4, label %_ZN7rocksdb16WBWIIteratorImpl4NextEv.exit, label %5

5:                                                ; preds = %1
  %6 = getelementptr inbounds nuw i8, ptr %0, i64 24
  %7 = load ptr, ptr %6, align 8, !tbaa !129
  %.not5.i.i = icmp eq ptr %7, null
  br i1 %.not5.i.i, label %_ZN7rocksdb16WBWIIteratorImpl4NextEv.exit, label %8

8:                                                ; preds = %5
  %9 = load ptr, ptr %7, align 8, !tbaa !130
  %.not.i.i = icmp eq ptr %9, null
  br i1 %.not.i.i, label %_ZN7rocksdb16WBWIIteratorImpl4NextEv.exit, label %_ZNK7rocksdb16WBWIIteratorImpl5ValidEv.exit

_ZNK7rocksdb16WBWIIteratorImpl5ValidEv.exit:      ; preds = %8
  %10 = getelementptr inbounds nuw i8, ptr %9, i64 8
  %11 = load i32, ptr %10, align 8, !tbaa !132
  %12 = getelementptr inbounds nuw i8, ptr %0, i64 8
  %13 = load i32, ptr %12, align 8, !tbaa !134
  %14 = icmp eq i32 %11, %13
  br i1 %14, label %15, label %_ZN7rocksdb16WBWIIteratorImpl4NextEv.exit

15:                                               ; preds = %_ZNK7rocksdb16WBWIIteratorImpl5ValidEv.exit
  tail call void @_ZN7rocksdb16WBWIIteratorImpl10AdvanceKeyEb(ptr noundef nonnull align 8 dereferenceable(72) %0, i1 noundef zeroext false)
  %16 = load i8, ptr %2, align 8, !tbaa !120, !range !91, !noundef !92
  %17 = trunc nuw i8 %16 to i1
  br i1 %17, label %_ZNK7rocksdb16WBWIIteratorImpl5ValidEv.exit3.thread, label %18

18:                                               ; preds = %15
  %19 = load ptr, ptr %6, align 8, !tbaa !129
  %.not5.i.i1 = icmp eq ptr %19, null
  br i1 %.not5.i.i1, label %_ZNK7rocksdb16WBWIIteratorImpl5ValidEv.exit3.thread, label %20

20:                                               ; preds = %18
  %21 = load ptr, ptr %19, align 8, !tbaa !130
  %.not.i.i2 = icmp eq ptr %21, null
  br i1 %.not.i.i2, label %_ZNK7rocksdb16WBWIIteratorImpl5ValidEv.exit3.thread, label %_ZNK7rocksdb16WBWIIteratorImpl5ValidEv.exit3

_ZNK7rocksdb16WBWIIteratorImpl5ValidEv.exit3:     ; preds = %20
  %22 = getelementptr inbounds nuw i8, ptr %21, i64 8
  %23 = load i32, ptr %22, align 8, !tbaa !132
  %24 = load i32, ptr %12, align 8, !tbaa !134
  %25 = icmp eq i32 %23, %24
  br i1 %25, label %26, label %_ZNK7rocksdb16WBWIIteratorImpl5ValidEv.exit3.thread

26:                                               ; preds = %_ZNK7rocksdb16WBWIIteratorImpl5ValidEv.exit3
  %27 = getelementptr inbounds nuw i8, ptr %19, i64 8
  %28 = load atomic i64, ptr %27 acquire, align 8
  %.0.i.i.i.i.i = inttoptr i64 %28 to ptr
  store ptr %.0.i.i.i.i.i, ptr %6, align 8, !tbaa !129
  %.not5.i.i4 = icmp eq i64 %28, 0
  br i1 %.not5.i.i4, label %_ZN7rocksdb16WBWIIteratorImpl4NextEv.exit, label %29

29:                                               ; preds = %26
  %30 = load ptr, ptr %.0.i.i.i.i.i, align 8, !tbaa !130
  %.not.i.i5 = icmp eq ptr %30, null
  br i1 %.not.i.i5, label %_ZN7rocksdb16WBWIIteratorImpl4NextEv.exit, label %_ZNK7rocksdb16WBWIIteratorImpl27ValidRegardlessOfBoundLimitEv.exit.i

_ZNK7rocksdb16WBWIIteratorImpl27ValidRegardlessOfBoundLimitEv.exit.i: ; preds = %29
  %31 = getelementptr inbounds nuw i8, ptr %30, i64 8
  %32 = load i32, ptr %31, align 8, !tbaa !132
  %33 = load i32, ptr %12, align 8, !tbaa !134
  %34 = icmp eq i32 %32, %33
  br i1 %34, label %35, label %_ZN7rocksdb16WBWIIteratorImpl4NextEv.exit

35:                                               ; preds = %_ZNK7rocksdb16WBWIIteratorImpl27ValidRegardlessOfBoundLimitEv.exit.i
  %36 = tail call noundef zeroext i1 @_ZNK7rocksdb16WBWIIteratorImpl14TestOutOfBoundEv(ptr noundef nonnull align 8 dereferenceable(72) %0)
  %37 = zext i1 %36 to i8
  store i8 %37, ptr %2, align 8, !tbaa !120
  br label %_ZN7rocksdb16WBWIIteratorImpl4NextEv.exit

_ZNK7rocksdb16WBWIIteratorImpl5ValidEv.exit3.thread: ; preds = %20, %18, %15, %_ZNK7rocksdb16WBWIIteratorImpl5ValidEv.exit3
  tail call void @_ZN7rocksdb16WBWIIteratorImpl11SeekToFirstEv(ptr noundef nonnull align 8 dereferenceable(72) %0)
  br label %_ZN7rocksdb16WBWIIteratorImpl4NextEv.exit

_ZN7rocksdb16WBWIIteratorImpl4NextEv.exit:        ; preds = %8, %5, %1, %35, %_ZNK7rocksdb16WBWIIteratorImpl27ValidRegardlessOfBoundLimitEv.exit.i, %29, %26, %_ZNK7rocksdb16WBWIIteratorImpl5ValidEv.exit3.thread, %_ZNK7rocksdb16WBWIIteratorImpl5ValidEv.exit
  ret void
}